target datalayout = "e-m:e-p270:32:32-p271:32:32-p272:64:64-i64:64-i128:128-f80:128-n8:16:32:64-S128"
target triple = "x86_64-pc-linux-gnu"

%struct._GList = type { ptr, ptr, ptr }
%struct._address = type { i32, i32, ptr, ptr }
%struct.dcom_machine_s = type { ptr, i32, %struct._address }
%struct.dcom_object_s = type { ptr, ptr, ptr, i32, i64, i64 }

@dcom_interfaces = internal global ptr null, align 8
@dcom_machines = internal global ptr null, align 8
@dcom_marshalers = internal global ptr null, align 8

; Function Attrs: nounwind uwtable
define internal void @clear_address(ptr noundef %0) #0 {
  %2 = alloca ptr, align 8
  store ptr %0, ptr %2, align 8
  %3 = load ptr, ptr %2, align 8
  %4 = getelementptr inbounds %struct._address, ptr %3, i32 0, i32 0
  store i32 0, ptr %4, align 8
  %5 = load ptr, ptr %2, align 8
  %6 = getelementptr inbounds %struct._address, ptr %5, i32 0, i32 1
  store i32 0, ptr %6, align 4
  %7 = load ptr, ptr %2, align 8
  %8 = getelementptr inbounds %struct._address, ptr %7, i32 0, i32 2
  store ptr null, ptr %8, align 8
  %9 = load ptr, ptr %2, align 8
  %10 = getelementptr inbounds %struct._address, ptr %9, i32 0, i32 3
  store ptr null, ptr %10, align 8
  ret void
}

; Function Attrs: nounwind uwtable
define internal void @free_address_wmem(ptr noundef %0, ptr noundef %1) #0 {
  %3 = alloca ptr, align 8
  %4 = alloca ptr, align 8
  store ptr %0, ptr %3, align 8
  store ptr %1, ptr %4, align 8
  %5 = load ptr, ptr %4, align 8
  %6 = getelementptr inbounds %struct._address, ptr %5, i32 0, i32 0
  %7 = load i32, ptr %6, align 8
  %8 = icmp ne i32 %7, 0
  br i1 %8, label %9, label %26

9:                                                ; preds = %2
  %10 = load ptr, ptr %4, align 8
  %11 = getelementptr inbounds %struct._address, ptr %10, i32 0, i32 1
  %12 = load i32, ptr %11, align 4
  %13 = icmp sgt i32 %12, 0
  br i1 %13, label %14, label %26

14:                                               ; preds = %9
  %15 = load ptr, ptr %4, align 8
  %16 = getelementptr inbounds %struct._address, ptr %15, i32 0, i32 3
  %17 = load ptr, ptr %16, align 8
  %18 = icmp ne ptr %17, null
  br i1 %18, label %19, label %26

19:                                               ; preds = %14
  br label %20

20:                                               ; preds = %19
  br label %21

21:                                               ; preds = %20
  %22 = load ptr, ptr %3, align 8
  %23 = load ptr, ptr %4, align 8
  %24 = getelementptr inbounds %struct._address, ptr %23, i32 0, i32 3
  %25 = load ptr, ptr %24, align 8
  call void @wmem_free(ptr noundef %22, ptr noundef %25)
  br label %26

26:                                               ; preds = %21, %14, %9, %2
  %27 = load ptr, ptr %4, align 8
  call void @clear_address(ptr noundef %27)
  ret void
}

; Function Attrs: nounwind uwtable
define internal void @free_address(ptr noundef %0) #0 {
  %2 = alloca ptr, align 8
  store ptr %0, ptr %2, align 8
  %3 = load ptr, ptr %2, align 8
  call void @free_address_wmem(ptr noundef null, ptr noundef %3)
  ret void
}

; Function Attrs: nounwind uwtable
define internal void @dcom_cleanup() #0 {
  %1 = alloca ptr, align 8
  %2 = alloca ptr, align 8
  %3 = alloca ptr, align 8
  %4 = alloca ptr, align 8
  %5 = alloca ptr, align 8
  %6 = load ptr, ptr @dcom_machines, align 8
  %7 = icmp ne ptr %6, null
  br i1 %7, label %8, label %107

8:                                                ; preds = %0
  %9 = load ptr, ptr @dcom_machines, align 8
  store ptr %9, ptr %1, align 8
  br label %10

10:                                               ; preds = %103, %8
  %11 = load ptr, ptr %1, align 8
  %12 = icmp ne ptr %11, null
  br i1 %12, label %13, label %105

13:                                               ; preds = %10
  %14 = load ptr, ptr %1, align 8
  %15 = getelementptr inbounds %struct._GList, ptr %14, i32 0, i32 0
  %16 = load ptr, ptr %15, align 8
  store ptr %16, ptr %2, align 8
  %17 = load ptr, ptr %2, align 8
  %18 = getelementptr inbounds %struct.dcom_machine_s, ptr %17, i32 0, i32 0
  %19 = load ptr, ptr %18, align 8
  %20 = icmp ne ptr %19, null
  br i1 %20, label %21, label %89

21:                                               ; preds = %13
  %22 = load ptr, ptr %2, align 8
  %23 = getelementptr inbounds %struct.dcom_machine_s, ptr %22, i32 0, i32 0
  %24 = load ptr, ptr %23, align 8
  store ptr %24, ptr %3, align 8
  br label %25

25:                                               ; preds = %79, %21
  %26 = load ptr, ptr %3, align 8
  %27 = icmp ne ptr %26, null
  br i1 %27, label %28, label %81

28:                                               ; preds = %25
  %29 = load ptr, ptr %3, align 8
  %30 = getelementptr inbounds %struct._GList, ptr %29, i32 0, i32 0
  %31 = load ptr, ptr %30, align 8
  store ptr %31, ptr %4, align 8
  %32 = load ptr, ptr %4, align 8
  %33 = getelementptr inbounds %struct.dcom_object_s, ptr %32, i32 0, i32 1
  %34 = load ptr, ptr %33, align 8
  %35 = icmp ne ptr %34, null
  br i1 %35, label %36, label %65

36:                                               ; preds = %28
  %37 = load ptr, ptr %4, align 8
  %38 = getelementptr inbounds %struct.dcom_object_s, ptr %37, i32 0, i32 1
  %39 = load ptr, ptr %38, align 8
  store ptr %39, ptr %5, align 8
  br label %40

40:                                               ; preds = %57, %36
  %41 = load ptr, ptr %5, align 8
  %42 = icmp ne ptr %41, null
  br i1 %42, label %43, label %59

43:                                               ; preds = %40
  %44 = load ptr, ptr %5, align 8
  %45 = getelementptr inbounds %struct._GList, ptr %44, i32 0, i32 0
  %46 = load ptr, ptr %45, align 8
  call void @g_free(ptr noundef %46)
  %47 = load ptr, ptr %5, align 8
  %48 = getelementptr inbounds %struct._GList, ptr %47, i32 0, i32 0
  store ptr null, ptr %48, align 8
  br label %49

49:                                               ; preds = %43
  %50 = load ptr, ptr %5, align 8
  %51 = icmp ne ptr %50, null
  br i1 %51, label %52, label %56

52:                                               ; preds = %49
  %53 = load ptr, ptr %5, align 8
  %54 = getelementptr inbounds %struct._GList, ptr %53, i32 0, i32 1
  %55 = load ptr, ptr %54, align 8
  br label %57

56:                                               ; preds = %49
  br label %57

57:                                               ; preds = %56, %52
  %58 = phi ptr [ %55, %52 ], [ null, %56 ]
  store ptr %58, ptr %5, align 8
  br label %40, !llvm.loop !18

59:                                               ; preds = %40
  %60 = load ptr, ptr %4, align 8
  %61 = getelementptr inbounds %struct.dcom_object_s, ptr %60, i32 0, i32 1
  %62 = load ptr, ptr %61, align 8
  call void @g_list_free(ptr noundef %62)
  %63 = load ptr, ptr %4, align 8
  %64 = getelementptr inbounds %struct.dcom_object_s, ptr %63, i32 0, i32 1
  store ptr null, ptr %64, align 8
  br label %65

65:                                               ; preds = %59, %28
  %66 = load ptr, ptr %3, align 8
  %67 = getelementptr inbounds %struct._GList, ptr %66, i32 0, i32 0
  %68 = load ptr, ptr %67, align 8
  call void @g_free(ptr noundef %68)
  %69 = load ptr, ptr %3, align 8
  %70 = getelementptr inbounds %struct._GList, ptr %69, i32 0, i32 0
  store ptr null, ptr %70, align 8
  br label %71

71:                                               ; preds = %65
  %72 = load ptr, ptr %3, align 8
  %73 = icmp ne ptr %72, null
  br i1 %73, label %74, label %78

74:                                               ; preds = %71
  %75 = load ptr, ptr %3, align 8
  %76 = getelementptr inbounds %struct._GList, ptr %75, i32 0, i32 1
  %77 = load ptr, ptr %76, align 8
  br label %79

78:                                               ; preds = %71
  br label %79

79:                                               ; preds = %78, %74
  %80 = phi ptr [ %77, %74 ], [ null, %78 ]
  store ptr %80, ptr %3, align 8
  br label %25, !llvm.loop !19

81:                                               ; preds = %25
  %82 = load ptr, ptr %2, align 8
  %83 = getelementptr inbounds %struct.dcom_machine_s, ptr %82, i32 0, i32 0
  %84 = load ptr, ptr %83, align 8
  call void @g_list_free(ptr noundef %84)
  %85 = load ptr, ptr %2, align 8
  %86 = getelementptr inbounds %struct.dcom_machine_s, ptr %85, i32 0, i32 2
  call void @free_address(ptr noundef %86)
  %87 = load ptr, ptr %2, align 8
  %88 = getelementptr inbounds %struct.dcom_machine_s, ptr %87, i32 0, i32 0
  store ptr null, ptr %88, align 8
  br label %89

89:                                               ; preds = %81, %13
  %90 = load ptr, ptr %1, align 8
  %91 = getelementptr inbounds %struct._GList, ptr %90, i32 0, i32 0
  %92 = load ptr, ptr %91, align 8
  call void @g_free(ptr noundef %92)
  %93 = load ptr, ptr %1, align 8
  %94 = getelementptr inbounds %struct._GList, ptr %93, i32 0, i32 0
  store ptr null, ptr %94, align 8
  br label %95

95:                                               ; preds = %89
  %96 = load ptr, ptr %1, align 8
  %97 = icmp ne ptr %96, null
  br i1 %97, label %98, label %102

98:                                               ; preds = %95
  %99 = load ptr, ptr %1, align 8
  %100 = getelementptr inbounds %struct._GList, ptr %99, i32 0, i32 1
  %101 = load ptr, ptr %100, align 8
  br label %103

102:                                              ; preds = %95
  br label %103

103:                                              ; preds = %102, %98
  %104 = phi ptr [ %101, %98 ], [ null, %102 ]
  store ptr %104, ptr %1, align 8
  br label %10, !llvm.loop !20

105:                                              ; preds = %10
  %106 = load ptr, ptr @dcom_machines, align 8
  call void @g_list_free(ptr noundef %106)
  store ptr null, ptr @dcom_machines, align 8
  br label %107

107:                                              ; preds = %105, %0
  %108 = load ptr, ptr @dcom_interfaces, align 8
  %109 = icmp ne ptr %108, null
  br i1 %109, label %110, label %112

110:                                              ; preds = %107
  %111 = load ptr, ptr @dcom_interfaces, align 8
  call void @g_list_free(ptr noundef %111)
  store ptr null, ptr @dcom_interfaces, align 8
  br label %112

112:                                              ; preds = %110, %107
  %113 = load ptr, ptr @dcom_marshalers, align 8
  %114 = icmp ne ptr %113, null
  br i1 %114, label %115, label %117

115:                                              ; preds = %112
  %116 = load ptr, ptr @dcom_marshalers, align 8
  call void @g_list_free(ptr noundef %116)
  store ptr null, ptr @dcom_marshalers, align 8
  br label %117

117:                                              ; preds = %115, %112
  ret void
}