; Function Attrs: nounwind uwtable
define internal void @dcom_cleanup() #1 {
  %1 = load ptr, ptr @dcom_machines, align 8
  %.not = icmp eq ptr %1, null
  br i1 %.not, label %34, label %.preheader41

.preheader41:                                     ; preds = %0, %28
  %.02644 = phi ptr [ %31, %28 ], [ %1, %0 ]
  %2 = load ptr, ptr %.02644, align 8
  %3 = load ptr, ptr %2, align 8
  %.not36 = icmp eq ptr %3, null
  br i1 %.not36, label %28, label %.preheader40

.preheader40:                                     ; preds = %.preheader41, %12
  %.02743 = phi ptr [ %15, %12 ], [ %3, %.preheader41 ]
  %4 = load ptr, ptr %.02743, align 8
  %5 = getelementptr inbounds nuw i8, ptr %4, i64 8
  %6 = load ptr, ptr %5, align 8
  %.not38 = icmp eq ptr %6, null
  br i1 %.not38, label %12, label %.preheader

.preheader:                                       ; preds = %.preheader40, %.preheader
  %.042 = phi ptr [ %9, %.preheader ], [ %6, %.preheader40 ]
  %7 = load ptr, ptr %.042, align 8
  tail call void @g_free(ptr noundef %7) #11
  store ptr null, ptr %.042, align 8
  %8 = getelementptr inbounds nuw i8, ptr %.042, i64 8
  %9 = load ptr, ptr %8, align 8
  %.not39 = icmp eq ptr %9, null
  br i1 %.not39, label %10, label %.preheader, !llvm.loop !18

10:                                               ; preds = %.preheader
  %11 = load ptr, ptr %5, align 8
  tail call void @g_list_free(ptr noundef %11) #11
  store ptr null, ptr %5, align 8
  %.pre = load ptr, ptr %.02743, align 8
  br label %12

12:                                               ; preds = %10, %.preheader40
  %13 = phi ptr [ %.pre, %10 ], [ %4, %.preheader40 ]
  tail call void @g_free(ptr noundef %13) #11
  store ptr null, ptr %.02743, align 8
  %14 = getelementptr inbounds nuw i8, ptr %.02743, i64 8
  %15 = load ptr, ptr %14, align 8
  %.not37 = icmp eq ptr %15, null
  br i1 %.not37, label %16, label %.preheader40, !llvm.loop !19

16:                                               ; preds = %12
  %17 = load ptr, ptr %2, align 8
  tail call void @g_list_free(ptr noundef %17) #11
  %18 = getelementptr inbounds nuw i8, ptr %2, i64 16
  %19 = load i32, ptr %18, align 8
  %.not.i.i = icmp eq i32 %19, 0
  br i1 %.not.i.i, label %free_address.exit, label %20

20:                                               ; preds = %16
  %21 = getelementptr inbounds nuw i8, ptr %2, i64 20
  %22 = load i32, ptr %21, align 4
  %23 = icmp sgt i32 %22, 0
  br i1 %23, label %24, label %free_address.exit

24:                                               ; preds = %20
  %25 = getelementptr inbounds nuw i8, ptr %2, i64 32
  %26 = load ptr, ptr %25, align 8
  %.not6.i.i = icmp eq ptr %26, null
  br i1 %.not6.i.i, label %free_address.exit, label %27

27:                                               ; preds = %24
  tail call void @wmem_free(ptr noundef null, ptr noundef nonnull %26) #11
  br label %free_address.exit

free_address.exit:                                ; preds = %16, %20, %24, %27
  tail call void @llvm.memset.p0.i64(ptr noundef nonnull align 8 dereferenceable(24) %18, i8 0, i64 24, i1 false)
  store ptr null, ptr %2, align 8
  %.pre45 = load ptr, ptr %.02644, align 8
  br label %28

28:                                               ; preds = %free_address.exit, %.preheader41
  %29 = phi ptr [ %.pre45, %free_address.exit ], [ %2, %.preheader41 ]
  tail call void @g_free(ptr noundef %29) #11
  store ptr null, ptr %.02644, align 8
  %30 = getelementptr inbounds nuw i8, ptr %.02644, i64 8
  %31 = load ptr, ptr %30, align 8
  %.not33 = icmp eq ptr %31, null
  br i1 %.not33, label %32, label %.preheader41, !llvm.loop !20

32:                                               ; preds = %28
  %33 = load ptr, ptr @dcom_machines, align 8
  tail call void @g_list_free(ptr noundef %33) #11
  store ptr null, ptr @dcom_machines, align 8
  br label %34

34:                                               ; preds = %32, %0
  %35 = load ptr, ptr @dcom_interfaces, align 8
  %.not34 = icmp eq ptr %35, null
  br i1 %.not34, label %37, label %36

36:                                               ; preds = %34
  tail call void @g_list_free(ptr noundef nonnull %35) #11
  store ptr null, ptr @dcom_interfaces, align 8
  br label %37

37:                                               ; preds = %36, %34
  %38 = load ptr, ptr @dcom_marshalers, align 8
  %.not35 = icmp eq ptr %38, null
  br i1 %.not35, label %40, label %39

39:                                               ; preds = %37
  tail call void @g_list_free(ptr noundef nonnull %38) #11
  store ptr null, ptr @dcom_marshalers, align 8
  br label %40

40:                                               ; preds = %39, %37
  ret void
}